target datalayout = "e-m:e-p270:32:32-p271:32:32-p272:64:64-i64:64-i128:128-f80:128-n8:16:32:64-S128"
target triple = "x86_64-pc-linux-gnu"

@.str = private unnamed_addr constant [32 x i8] c"That operation is not supported\00", align 1

; Function Attrs: nounwind uwtable
define internal zeroext i1 @X11_SetRelativeMouseMode(i1 noundef zeroext %0) #0 {
  %2 = alloca i1, align 1
  %3 = alloca i8, align 1
  %4 = zext i1 %0 to i8
  store i8 %4, ptr %3, align 1
  %5 = call zeroext i1 @X11_Xinput2IsInitialized()
  br i1 %5, label %8, label %6

6:                                                ; preds = %1
  %7 = call zeroext i1 (ptr, ...) @SDL_SetError_REAL(ptr noundef @.str)
  store i1 %7, ptr %2, align 1
  br label %9

8:                                                ; preds = %1
  store i1 true, ptr %2, align 1
  br label %9

9:                                                ; preds = %8, %6
  %10 = load i1, ptr %2, align 1
  ret i1 %10
}