; Function Attrs: nounwind uwtable
define internal zeroext i1 @X11_SetRelativeMouseMode(i1 zeroext %0) #0 {
  %2 = tail call zeroext i1 @X11_Xinput2IsInitialized() #5
  br i1 %2, label %5, label %3

3:                                                ; preds = %1
  %4 = tail call zeroext i1 (ptr, ...) @SDL_SetError_REAL(ptr noundef nonnull @.str) #5
  br label %5

5:                                                ; preds = %1, %3
  %.0 = phi i1 [ %4, %3 ], [ true, %1 ]
  ret i1 %.0
}